LIBRARY sc2_qt.dll
EXPORTS
_ZN3SC210DReadBeginEi
_ZN3SC210DisconnectEi
_ZN3SC210FtpMakeDirEiPc
_ZN3SC210LReadBeginEi
_ZN3SC210memRStringEiiiPc
_ZN3SC211DClearQueueEi
_ZN3SC211DWrite1RBitEiiii
_ZN3SC211DWriteBeginEi
_ZN3SC211FtpReadFileEiP8FTP_FILE
_ZN3SC211LClearQueueEi
_ZN3SC211LWriteBeginEi
_ZN3SC211MainProcessEv
_ZN3SC212FtpCheckDoneEv
_ZN3SC212GetTranStateEi
_ZN3SC213ConnectSetPwdEiPc
_ZN3SC213DWriteRStringEiiiPc
_ZN3SC213FtpDeleteFileEiPcS0_
_ZN3SC213FtpUploadFileEiPcS0_S0_
_ZN3SC213GetLibraryMsgEi
_ZN3SC213LocalReadFileEiP8FTP_FILE
_ZN3SC213memSetRStringEiiiPc
_ZN3SC214ConnectLocalIPEiPc
_ZN3SC214FtpDeleteFilesEv
_ZN3SC214FtpGetFileListEiPcS0_S0_
_ZN3SC214FtpUploadFilesEv
_ZN3SC214GetDataPointerEi
_ZN3SC214LibraryDestroyEv
_ZN3SC214LibraryInitialEP15DLL_USE_SETTINGiPc
_ZN3SC215FtpDownloadFileEiPcS0_S0_
_ZN3SC215LibrarySetDebugEi
_ZN3SC215LocalDeleteFileEi
_ZN3SC216ConnectLocalListEii
_ZN3SC216FtpDownloadFilesEv
_ZN3SC216FtpReadFileCountEv
_ZN3SC216FtpSetConnectionEi
_ZN3SC216GetConnectionMsgEii
_ZN3SC216LocalGetFileListEPcS0_S0_
_ZN3SC218FtpTransferFileAddEiPcS0_S0_
_ZN3SC218GetConnectionErrorEiP9ERROR_MSG
_ZN3SC218LocalReadFileCountEv
_ZN3SC219LocalReadControllerEiP21LOCAL_CONTROLLER_INFO
_ZN3SC220FtpTransferFileResetEv
_ZN3SC222LocalDetectControllersEv
_ZN3SC224LocalReadControllerCountEv
_ZN3SC24memAEii
_ZN3SC24memCEii
_ZN3SC24memFEii
_ZN3SC24memIEii
_ZN3SC24memOEii
_ZN3SC24memREii
_ZN3SC24memSEii
_ZN3SC27DReadNAEiii
_ZN3SC27DReadNCEiii
_ZN3SC27DReadNFEiii
_ZN3SC27DReadNIEiii
_ZN3SC27DReadNOEiii
_ZN3SC27DReadNREiii
_ZN3SC27DReadNSEiii
_ZN3SC27LReadNAEiii
_ZN3SC27LReadNCEiii
_ZN3SC27LReadNFEiii
_ZN3SC27LReadNIEiii
_ZN3SC27LReadNOEiii
_ZN3SC27LReadNREiii
_ZN3SC27LReadNSEiii
_ZN3SC27memSetAEiic
_ZN3SC27memSetCEiic
_ZN3SC27memSetFEiid
_ZN3SC27memSetOEiic
_ZN3SC27memSetREiii
_ZN3SC27memSetSEiic
_ZN3SC28DReadEndEi
_ZN3SC28DWrite1AEiii
_ZN3SC28DWrite1CEiii
_ZN3SC28DWrite1FEiid
_ZN3SC28DWrite1OEiii
_ZN3SC28DWrite1REiii
_ZN3SC28DWrite1SEiii
_ZN3SC28DWriteNAEiiiPi
_ZN3SC28DWriteNCEiiiPi
_ZN3SC28DWriteNFEiiiPd
_ZN3SC28DWriteNOEiiiPi
_ZN3SC28DWriteNREiiiPi
_ZN3SC28DWriteNSEiiiPi
_ZN3SC28LReadEndEi
_ZN3SC28LWriteNAEiii
_ZN3SC28LWriteNCEiii
_ZN3SC28LWriteNFEiii
_ZN3SC28LWriteNOEiii
_ZN3SC28LWriteNREiii
_ZN3SC28LWriteNSEiii
_ZN3SC29DWaitDoneEii
_ZN3SC29DWriteEndEi
_ZN3SC29LWriteEndEi
_ZN3SC2C1Ev
_ZN3SC2C2Ev
